; ModuleID = '24/217.c'
source_filename = "24/217.c"
target datalayout = "e-m:e-p270:32:32-p271:32:32-p272:64:64-i64:64-f80:128-n8:16:32:64-S128"
target triple = "x86_64-pc-linux-gnu"

@.str = private unnamed_addr constant [3 x i8] c"%s\00", align 1
@.str.1 = private unnamed_addr constant [3 x i8] c"%c\00", align 1
@.str.2 = private unnamed_addr constant [2 x i8] c"\0A\00", align 1

; Function Attrs: noinline nounwind uwtable
define dso_local void @main() #0 {
  %1 = alloca [100 x i8], align 16
  %2 = alloca [100 x [100 x i8]], align 16
  %3 = alloca [100 x i32], align 16
  %4 = alloca i32, align 4
  %5 = alloca i32, align 4
  %6 = alloca i32, align 4
  %7 = alloca i32, align 4
  %8 = bitcast [100 x [100 x i8]]* %2 to i8*
  call void @llvm.memset.p0i8.i64(i8* align 16 %8, i8 0, i64 10000, i1 false)
  %9 = bitcast [100 x i32]* %3 to i8*
  call void @llvm.memset.p0i8.i64(i8* align 16 %9, i8 0, i64 400, i1 false)
  store i32 0, i32* %4, align 4
  store i32 0, i32* %5, align 4
  store i32 0, i32* %6, align 4
  br label %10

10:                                               ; preds = %54, %0
  store i32 0, i32* %7, align 4
  br label %11

11:                                               ; preds = %18, %10
  %12 = load i32, i32* %7, align 4
  %13 = icmp slt i32 %12, 100
  br i1 %13, label %14, label %21

14:                                               ; preds = %11
  %15 = load i32, i32* %7, align 4
  %16 = sext i32 %15 to i64
  %17 = getelementptr inbounds [100 x i8], [100 x i8]* %1, i64 0, i64 %16
  store i8 0, i8* %17, align 1
  br label %18

18:                                               ; preds = %14
  %19 = load i32, i32* %7, align 4
  %20 = add nsw i32 %19, 1
  store i32 %20, i32* %7, align 4
  br label %11

21:                                               ; preds = %11
  %22 = getelementptr inbounds [100 x i8], [100 x i8]* %1, i64 0, i64 0
  %23 = call i32 (i8*, ...) @__isoc99_scanf(i8* getelementptr inbounds ([3 x i8], [3 x i8]* @.str, i64 0, i64 0), i8* %22)
  %24 = getelementptr inbounds [100 x i8], [100 x i8]* %1, i64 0, i64 0
  %25 = call i64 @strlen(i8* %24) #4
  %26 = trunc i64 %25 to i32
  %27 = load i32, i32* %4, align 4
  %28 = sext i32 %27 to i64
  %29 = getelementptr inbounds [100 x i32], [100 x i32]* %3, i64 0, i64 %28
  store i32 %26, i32* %29, align 4
  store i32 0, i32* %7, align 4
  br label %30

30:                                               ; preds = %48, %21
  %31 = load i32, i32* %7, align 4
  %32 = load i32, i32* %4, align 4
  %33 = sext i32 %32 to i64
  %34 = getelementptr inbounds [100 x i32], [100 x i32]* %3, i64 0, i64 %33
  %35 = load i32, i32* %34, align 4
  %36 = icmp slt i32 %31, %35
  br i1 %36, label %37, label %51

37:                                               ; preds = %30
  %38 = load i32, i32* %7, align 4
  %39 = sext i32 %38 to i64
  %40 = getelementptr inbounds [100 x i8], [100 x i8]* %1, i64 0, i64 %39
  %41 = load i8, i8* %40, align 1
  %42 = load i32, i32* %4, align 4
  %43 = sext i32 %42 to i64
  %44 = getelementptr inbounds [100 x [100 x i8]], [100 x [100 x i8]]* %2, i64 0, i64 %43
  %45 = load i32, i32* %7, align 4
  %46 = sext i32 %45 to i64
  %47 = getelementptr inbounds [100 x i8], [100 x i8]* %44, i64 0, i64 %46
  store i8 %41, i8* %47, align 1
  br label %48

48:                                               ; preds = %37
  %49 = load i32, i32* %7, align 4
  %50 = add nsw i32 %49, 1
  store i32 %50, i32* %7, align 4
  br label %30

51:                                               ; preds = %30
  %52 = load i32, i32* %4, align 4
  %53 = add nsw i32 %52, 1
  store i32 %53, i32* %4, align 4
  br label %54

54:                                               ; preds = %51
  %55 = call i32 @getchar()
  %56 = icmp ne i32 %55, 10
  br i1 %56, label %10, label %57

57:                                               ; preds = %54
  store i32 0, i32* %7, align 4
  br label %58

58:                                               ; preds = %93, %57
  %59 = load i32, i32* %7, align 4
  %60 = load i32, i32* %4, align 4
  %61 = icmp slt i32 %59, %60
  br i1 %61, label %62, label %96

62:                                               ; preds = %58
  %63 = load i32, i32* %6, align 4
  %64 = sext i32 %63 to i64
  %65 = getelementptr inbounds [100 x i32], [100 x i32]* %3, i64 0, i64 %64
  %66 = load i32, i32* %65, align 4
  %67 = load i32, i32* %7, align 4
  %68 = sext i32 %67 to i64
  %69 = getelementptr inbounds [100 x i32], [100 x i32]* %3, i64 0, i64 %68
  %70 = load i32, i32* %69, align 4
  %71 = icmp sge i32 %66, %70
  br i1 %71, label %72, label %74

72:                                               ; preds = %62
  %73 = load i32, i32* %6, align 4
  br label %76

74:                                               ; preds = %62
  %75 = load i32, i32* %7, align 4
  br label %76

76:                                               ; preds = %74, %72
  %77 = phi i32 [ %73, %72 ], [ %75, %74 ]
  store i32 %77, i32* %6, align 4
  %78 = load i32, i32* %5, align 4
  %79 = sext i32 %78 to i64
  %80 = getelementptr inbounds [100 x i32], [100 x i32]* %3, i64 0, i64 %79
  %81 = load i32, i32* %80, align 4
  %82 = load i32, i32* %7, align 4
  %83 = sext i32 %82 to i64
  %84 = getelementptr inbounds [100 x i32], [100 x i32]* %3, i64 0, i64 %83
  %85 = load i32, i32* %84, align 4
  %86 = icmp sle i32 %81, %85
  br i1 %86, label %87, label %89

87:                                               ; preds = %76
  %88 = load i32, i32* %5, align 4
  br label %91

89:                                               ; preds = %76
  %90 = load i32, i32* %7, align 4
  br label %91

91:                                               ; preds = %89, %87
  %92 = phi i32 [ %88, %87 ], [ %90, %89 ]
  store i32 %92, i32* %5, align 4
  br label %93

93:                                               ; preds = %91
  %94 = load i32, i32* %7, align 4
  %95 = add nsw i32 %94, 1
  store i32 %95, i32* %7, align 4
  br label %58

96:                                               ; preds = %58
  store i32 0, i32* %4, align 4
  br label %97

97:                                               ; preds = %114, %96
  %98 = load i32, i32* %4, align 4
  %99 = load i32, i32* %6, align 4
  %100 = sext i32 %99 to i64
  %101 = getelementptr inbounds [100 x i32], [100 x i32]* %3, i64 0, i64 %100
  %102 = load i32, i32* %101, align 4
  %103 = icmp slt i32 %98, %102
  br i1 %103, label %104, label %117

104:                                              ; preds = %97
  %105 = load i32, i32* %6, align 4
  %106 = sext i32 %105 to i64
  %107 = getelementptr inbounds [100 x [100 x i8]], [100 x [100 x i8]]* %2, i64 0, i64 %106
  %108 = load i32, i32* %4, align 4
  %109 = sext i32 %108 to i64
  %110 = getelementptr inbounds [100 x i8], [100 x i8]* %107, i64 0, i64 %109
  %111 = load i8, i8* %110, align 1
  %112 = sext i8 %111 to i32
  %113 = call i32 (i8*, ...) @printf(i8* getelementptr inbounds ([3 x i8], [3 x i8]* @.str.1, i64 0, i64 0), i32 %112)
  br label %114

114:                                              ; preds = %104
  %115 = load i32, i32* %4, align 4
  %116 = add nsw i32 %115, 1
  store i32 %116, i32* %4, align 4
  br label %97

117:                                              ; preds = %97
  %118 = call i32 (i8*, ...) @printf(i8* getelementptr inbounds ([2 x i8], [2 x i8]* @.str.2, i64 0, i64 0))
  store i32 0, i32* %4, align 4
  br label %119

119:                                              ; preds = %136, %117
  %120 = load i32, i32* %4, align 4
  %121 = load i32, i32* %5, align 4
  %122 = sext i32 %121 to i64
  %123 = getelementptr inbounds [100 x i32], [100 x i32]* %3, i64 0, i64 %122
  %124 = load i32, i32* %123, align 4
  %125 = icmp slt i32 %120, %124
  br i1 %125, label %126, label %139

126:                                              ; preds = %119
  %127 = load i32, i32* %5, align 4
  %128 = sext i32 %127 to i64
  %129 = getelementptr inbounds [100 x [100 x i8]], [100 x [100 x i8]]* %2, i64 0, i64 %128
  %130 = load i32, i32* %4, align 4
  %131 = sext i32 %130 to i64
  %132 = getelementptr inbounds [100 x i8], [100 x i8]* %129, i64 0, i64 %131
  %133 = load i8, i8* %132, align 1
  %134 = sext i8 %133 to i32
  %135 = call i32 (i8*, ...) @printf(i8* getelementptr inbounds ([3 x i8], [3 x i8]* @.str.1, i64 0, i64 0), i32 %134)
  br label %136

136:                                              ; preds = %126
  %137 = load i32, i32* %4, align 4
  %138 = add nsw i32 %137, 1
  store i32 %138, i32* %4, align 4
  br label %119

139:                                              ; preds = %119
  ret void
}

; Function Attrs: argmemonly nounwind willreturn
declare void @llvm.memset.p0i8.i64(i8* nocapture writeonly, i8, i64, i1 immarg) #1

declare dso_local i32 @__isoc99_scanf(i8*, ...) #2

; Function Attrs: nounwind readonly
declare dso_local i64 @strlen(i8*) #3

declare dso_local i32 @getchar() #2

declare dso_local i32 @printf(i8*, ...) #2


!llvm.module.flags = !{!0}
!llvm.ident = !{!1}

!0 = !{i32 1, !"wchar_size", i32 4}
!1 = !{!"clang version 10.0.0-4ubuntu1 "}
